target datalayout = "e-m:e-p270:32:32-p271:32:32-p272:64:64-i64:64-i128:128-f80:128-n8:16:32:64-S128"
target triple = "x86_64-pc-linux-gnu"

; Function Attrs: inlinehint mustprogress nounwind uwtable
define internal noundef signext i8 @_ZL9U_FAILURE10UErrorCode(i32 noundef %0) #2 {
  %2 = alloca i32, align 4
  store i32 %0, ptr %2, align 4, !tbaa !15
  %3 = load i32, ptr %2, align 4, !tbaa !15
  %4 = icmp sgt i32 %3, 0
  %5 = zext i1 %4 to i8
  ret i8 %5
}

; Function Attrs: mustprogress uwtable
define i32 @ucol_getShortDefinitionString_77(ptr noundef %0, ptr noundef %1, ptr noundef %2, i32 noundef %3, ptr noundef %4) #1 {
  %6 = alloca i32, align 4
  %7 = alloca ptr, align 8
  %8 = alloca ptr, align 8
  %9 = alloca ptr, align 8
  %10 = alloca i32, align 4
  %11 = alloca ptr, align 8
  store ptr %0, ptr %7, align 8, !tbaa !57
  store ptr %1, ptr %8, align 8, !tbaa !17
  store ptr %2, ptr %9, align 8, !tbaa !17
  store i32 %3, ptr %10, align 4, !tbaa !14
  store ptr %4, ptr %11, align 8, !tbaa !22
  %12 = load ptr, ptr %11, align 8, !tbaa !22
  %13 = load i32, ptr %12, align 4, !tbaa !15
  %14 = call noundef signext i8 @_ZL9U_FAILURE10UErrorCode(i32 noundef %13)
  %15 = icmp ne i8 %14, 0
  br i1 %15, label %16, label %17

16:                                               ; preds = %5
  store i32 0, ptr %6, align 4
  br label %32

17:                                               ; preds = %5
  %18 = load ptr, ptr %7, align 8, !tbaa !57
  %19 = icmp eq ptr %18, null
  br i1 %19, label %20, label %22

20:                                               ; preds = %17
  %21 = load ptr, ptr %11, align 8, !tbaa !22
  store i32 1, ptr %21, align 4, !tbaa !15
  store i32 0, ptr %6, align 4
  br label %32

22:                                               ; preds = %17
  %23 = load ptr, ptr %7, align 8, !tbaa !57
  %24 = load ptr, ptr %8, align 8, !tbaa !17
  %25 = load ptr, ptr %9, align 8, !tbaa !17
  %26 = load i32, ptr %10, align 4, !tbaa !14
  %27 = load ptr, ptr %11, align 8, !tbaa !22
  %28 = load ptr, ptr %23, align 8, !tbaa !61
  %29 = getelementptr inbounds ptr, ptr %28, i64 36
  %30 = load ptr, ptr %29, align 8
  %31 = call noundef i32 %30(ptr noundef nonnull align 8 dereferenceable(8) %23, ptr noundef %24, ptr noundef %25, i32 noundef %26, ptr noundef nonnull align 4 dereferenceable(4) %27)
  store i32 %31, ptr %6, align 4
  br label %32

32:                                               ; preds = %22, %20, %16
  %33 = load i32, ptr %6, align 4
  ret i32 %33
}