; Function Attrs: mustprogress uwtable
define noundef i32 @ucol_getShortDefinitionString_77(ptr noundef %0, ptr noundef %1, ptr noundef %2, i32 noundef %3, ptr noundef %4) local_unnamed_addr #1 {
  %6 = load i32, ptr %4, align 4, !tbaa !13
  %7 = icmp slt i32 %6, 1
  br i1 %7, label %8, label %16

8:                                                ; preds = %5
  %9 = icmp eq ptr %0, null
  br i1 %9, label %10, label %11

10:                                               ; preds = %8
  store i32 1, ptr %4, align 4, !tbaa !13
  br label %16

11:                                               ; preds = %8
  %12 = load ptr, ptr %0, align 8, !tbaa !38
  %13 = getelementptr inbounds nuw i8, ptr %12, i64 288
  %14 = load ptr, ptr %13, align 8
  %15 = tail call noundef i32 %14(ptr noundef nonnull align 8 dereferenceable(8) %0, ptr noundef %1, ptr noundef %2, i32 noundef %3, ptr noundef nonnull align 4 dereferenceable(4) %4)
  br label %16

16:                                               ; preds = %5, %11, %10
  %.0 = phi i32 [ 0, %10 ], [ %15, %11 ], [ 0, %5 ]
  ret i32 %.0
}